target datalayout = "e-m:e-p270:32:32-p271:32:32-p272:64:64-i64:64-i128:128-f80:128-n8:16:32:64-S128"
target triple = "x86_64-pc-linux-gnu"

%struct._zend_accel_globals = type { i8, i8, i8, i8, i8, %struct._zend_accel_directives, ptr, ptr, [32 x i8], [32 x i8], i32, i8, i32, i8, i32, i64, i64, %struct._zend_array, i64, ptr, ptr, ptr, ptr, %struct._zend_string, [32768 x i8] }
%struct._zend_accel_directives = type { i64, i64, double, ptr, i64, i8, i8, i8, i8, i8, i8, i8, i8, i8, i8, i8, i64, i64, ptr, ptr, i64, i64, i64, i64, i64, ptr, ptr, ptr, i8, i8, i8, ptr, ptr }
%struct._zend_array = type { %struct._zend_refcounted_h, %union.anon.0, i32, %union.anon.1, i32, i32, i32, i32, i64, ptr }
%struct._zend_refcounted_h = type { i32, %union.anon }
%union.anon = type { i32 }
%union.anon.0 = type { i32 }
%union.anon.1 = type { ptr }
%struct._zend_string = type { %struct._zend_refcounted_h, i64, i64, [1 x i8] }

@accel_globals = external global %struct._zend_accel_globals, align 8
@zend_system_id = external global [32 x i8], align 16
@.str.13 = private unnamed_addr constant [5 x i8] c".bin\00", align 1

; Function Attrs: nounwind uwtable
define internal ptr @zend_file_cache_get_bin_file_path(ptr noundef %0) #0 {
  %2 = alloca ptr, align 8
  %3 = alloca i64, align 8
  %4 = alloca ptr, align 8
  store ptr %0, ptr %2, align 8
  %5 = load ptr, ptr getelementptr inbounds (%struct._zend_accel_globals, ptr @accel_globals, i32 0, i32 5, i32 27), align 8
  %6 = call i64 @strlen(ptr noundef %5) #12
  store i64 %6, ptr %3, align 8
  %7 = load i64, ptr %3, align 8
  %8 = add i64 %7, 33
  %9 = load ptr, ptr %2, align 8
  %10 = getelementptr inbounds %struct._zend_string, ptr %9, i32 0, i32 2
  %11 = load i64, ptr %10, align 8
  %12 = add i64 %8, %11
  %13 = add i64 %12, 5
  %14 = call i1 @llvm.is.constant.i64(i64 %13)
  br i1 %14, label %15, label %434

15:                                               ; preds = %1
  %16 = load i64, ptr %3, align 8
  %17 = add i64 %16, 33
  %18 = load ptr, ptr %2, align 8
  %19 = getelementptr inbounds %struct._zend_string, ptr %18, i32 0, i32 2
  %20 = load i64, ptr %19, align 8
  %21 = add i64 %17, %20
  %22 = add i64 %21, 5
  %23 = icmp ule i64 %22, 8
  br i1 %23, label %24, label %26

24:                                               ; preds = %15
  %25 = call noalias ptr @_emalloc_8()
  br label %432

26:                                               ; preds = %15
  %27 = load i64, ptr %3, align 8
  %28 = add i64 %27, 33
  %29 = load ptr, ptr %2, align 8
  %30 = getelementptr inbounds %struct._zend_string, ptr %29, i32 0, i32 2
  %31 = load i64, ptr %30, align 8
  %32 = add i64 %28, %31
  %33 = add i64 %32, 5
  %34 = icmp ule i64 %33, 16
  br i1 %34, label %35, label %37

35:                                               ; preds = %26
  %36 = call noalias ptr @_emalloc_16()
  br label %430

37:                                               ; preds = %26
  %38 = load i64, ptr %3, align 8
  %39 = add i64 %38, 33
  %40 = load ptr, ptr %2, align 8
  %41 = getelementptr inbounds %struct._zend_string, ptr %40, i32 0, i32 2
  %42 = load i64, ptr %41, align 8
  %43 = add i64 %39, %42
  %44 = add i64 %43, 5
  %45 = icmp ule i64 %44, 24
  br i1 %45, label %46, label %48

46:                                               ; preds = %37
  %47 = call noalias ptr @_emalloc_24()
  br label %428

48:                                               ; preds = %37
  %49 = load i64, ptr %3, align 8
  %50 = add i64 %49, 33
  %51 = load ptr, ptr %2, align 8
  %52 = getelementptr inbounds %struct._zend_string, ptr %51, i32 0, i32 2
  %53 = load i64, ptr %52, align 8
  %54 = add i64 %50, %53
  %55 = add i64 %54, 5
  %56 = icmp ule i64 %55, 32
  br i1 %56, label %57, label %59

57:                                               ; preds = %48
  %58 = call noalias ptr @_emalloc_32()
  br label %426

59:                                               ; preds = %48
  %60 = load i64, ptr %3, align 8
  %61 = add i64 %60, 33
  %62 = load ptr, ptr %2, align 8
  %63 = getelementptr inbounds %struct._zend_string, ptr %62, i32 0, i32 2
  %64 = load i64, ptr %63, align 8
  %65 = add i64 %61, %64
  %66 = add i64 %65, 5
  %67 = icmp ule i64 %66, 40
  br i1 %67, label %68, label %70

68:                                               ; preds = %59
  %69 = call noalias ptr @_emalloc_40()
  br label %424

70:                                               ; preds = %59
  %71 = load i64, ptr %3, align 8
  %72 = add i64 %71, 33
  %73 = load ptr, ptr %2, align 8
  %74 = getelementptr inbounds %struct._zend_string, ptr %73, i32 0, i32 2
  %75 = load i64, ptr %74, align 8
  %76 = add i64 %72, %75
  %77 = add i64 %76, 5
  %78 = icmp ule i64 %77, 48
  br i1 %78, label %79, label %81

79:                                               ; preds = %70
  %80 = call noalias ptr @_emalloc_48()
  br label %422

81:                                               ; preds = %70
  %82 = load i64, ptr %3, align 8
  %83 = add i64 %82, 33
  %84 = load ptr, ptr %2, align 8
  %85 = getelementptr inbounds %struct._zend_string, ptr %84, i32 0, i32 2
  %86 = load i64, ptr %85, align 8
  %87 = add i64 %83, %86
  %88 = add i64 %87, 5
  %89 = icmp ule i64 %88, 56
  br i1 %89, label %90, label %92

90:                                               ; preds = %81
  %91 = call noalias ptr @_emalloc_56()
  br label %420

92:                                               ; preds = %81
  %93 = load i64, ptr %3, align 8
  %94 = add i64 %93, 33
  %95 = load ptr, ptr %2, align 8
  %96 = getelementptr inbounds %struct._zend_string, ptr %95, i32 0, i32 2
  %97 = load i64, ptr %96, align 8
  %98 = add i64 %94, %97
  %99 = add i64 %98, 5
  %100 = icmp ule i64 %99, 64
  br i1 %100, label %101, label %103

101:                                              ; preds = %92
  %102 = call noalias ptr @_emalloc_64()
  br label %418

103:                                              ; preds = %92
  %104 = load i64, ptr %3, align 8
  %105 = add i64 %104, 33
  %106 = load ptr, ptr %2, align 8
  %107 = getelementptr inbounds %struct._zend_string, ptr %106, i32 0, i32 2
  %108 = load i64, ptr %107, align 8
  %109 = add i64 %105, %108
  %110 = add i64 %109, 5
  %111 = icmp ule i64 %110, 80
  br i1 %111, label %112, label %114

112:                                              ; preds = %103
  %113 = call noalias ptr @_emalloc_80()
  br label %416

114:                                              ; preds = %103
  %115 = load i64, ptr %3, align 8
  %116 = add i64 %115, 33
  %117 = load ptr, ptr %2, align 8
  %118 = getelementptr inbounds %struct._zend_string, ptr %117, i32 0, i32 2
  %119 = load i64, ptr %118, align 8
  %120 = add i64 %116, %119
  %121 = add i64 %120, 5
  %122 = icmp ule i64 %121, 96
  br i1 %122, label %123, label %125

123:                                              ; preds = %114
  %124 = call noalias ptr @_emalloc_96()
  br label %414

125:                                              ; preds = %114
  %126 = load i64, ptr %3, align 8
  %127 = add i64 %126, 33
  %128 = load ptr, ptr %2, align 8
  %129 = getelementptr inbounds %struct._zend_string, ptr %128, i32 0, i32 2
  %130 = load i64, ptr %129, align 8
  %131 = add i64 %127, %130
  %132 = add i64 %131, 5
  %133 = icmp ule i64 %132, 112
  br i1 %133, label %134, label %136

134:                                              ; preds = %125
  %135 = call noalias ptr @_emalloc_112()
  br label %412

136:                                              ; preds = %125
  %137 = load i64, ptr %3, align 8
  %138 = add i64 %137, 33
  %139 = load ptr, ptr %2, align 8
  %140 = getelementptr inbounds %struct._zend_string, ptr %139, i32 0, i32 2
  %141 = load i64, ptr %140, align 8
  %142 = add i64 %138, %141
  %143 = add i64 %142, 5
  %144 = icmp ule i64 %143, 128
  br i1 %144, label %145, label %147

145:                                              ; preds = %136
  %146 = call noalias ptr @_emalloc_128()
  br label %410

147:                                              ; preds = %136
  %148 = load i64, ptr %3, align 8
  %149 = add i64 %148, 33
  %150 = load ptr, ptr %2, align 8
  %151 = getelementptr inbounds %struct._zend_string, ptr %150, i32 0, i32 2
  %152 = load i64, ptr %151, align 8
  %153 = add i64 %149, %152
  %154 = add i64 %153, 5
  %155 = icmp ule i64 %154, 160
  br i1 %155, label %156, label %158

156:                                              ; preds = %147
  %157 = call noalias ptr @_emalloc_160()
  br label %408

158:                                              ; preds = %147
  %159 = load i64, ptr %3, align 8
  %160 = add i64 %159, 33
  %161 = load ptr, ptr %2, align 8
  %162 = getelementptr inbounds %struct._zend_string, ptr %161, i32 0, i32 2
  %163 = load i64, ptr %162, align 8
  %164 = add i64 %160, %163
  %165 = add i64 %164, 5
  %166 = icmp ule i64 %165, 192
  br i1 %166, label %167, label %169

167:                                              ; preds = %158
  %168 = call noalias ptr @_emalloc_192()
  br label %406

169:                                              ; preds = %158
  %170 = load i64, ptr %3, align 8
  %171 = add i64 %170, 33
  %172 = load ptr, ptr %2, align 8
  %173 = getelementptr inbounds %struct._zend_string, ptr %172, i32 0, i32 2
  %174 = load i64, ptr %173, align 8
  %175 = add i64 %171, %174
  %176 = add i64 %175, 5
  %177 = icmp ule i64 %176, 224
  br i1 %177, label %178, label %180

178:                                              ; preds = %169
  %179 = call noalias ptr @_emalloc_224()
  br label %404

180:                                              ; preds = %169
  %181 = load i64, ptr %3, align 8
  %182 = add i64 %181, 33
  %183 = load ptr, ptr %2, align 8
  %184 = getelementptr inbounds %struct._zend_string, ptr %183, i32 0, i32 2
  %185 = load i64, ptr %184, align 8
  %186 = add i64 %182, %185
  %187 = add i64 %186, 5
  %188 = icmp ule i64 %187, 256
  br i1 %188, label %189, label %191

189:                                              ; preds = %180
  %190 = call noalias ptr @_emalloc_256()
  br label %402

191:                                              ; preds = %180
  %192 = load i64, ptr %3, align 8
  %193 = add i64 %192, 33
  %194 = load ptr, ptr %2, align 8
  %195 = getelementptr inbounds %struct._zend_string, ptr %194, i32 0, i32 2
  %196 = load i64, ptr %195, align 8
  %197 = add i64 %193, %196
  %198 = add i64 %197, 5
  %199 = icmp ule i64 %198, 320
  br i1 %199, label %200, label %202

200:                                              ; preds = %191
  %201 = call noalias ptr @_emalloc_320()
  br label %400

202:                                              ; preds = %191
  %203 = load i64, ptr %3, align 8
  %204 = add i64 %203, 33
  %205 = load ptr, ptr %2, align 8
  %206 = getelementptr inbounds %struct._zend_string, ptr %205, i32 0, i32 2
  %207 = load i64, ptr %206, align 8
  %208 = add i64 %204, %207
  %209 = add i64 %208, 5
  %210 = icmp ule i64 %209, 384
  br i1 %210, label %211, label %213

211:                                              ; preds = %202
  %212 = call noalias ptr @_emalloc_384()
  br label %398

213:                                              ; preds = %202
  %214 = load i64, ptr %3, align 8
  %215 = add i64 %214, 33
  %216 = load ptr, ptr %2, align 8
  %217 = getelementptr inbounds %struct._zend_string, ptr %216, i32 0, i32 2
  %218 = load i64, ptr %217, align 8
  %219 = add i64 %215, %218
  %220 = add i64 %219, 5
  %221 = icmp ule i64 %220, 448
  br i1 %221, label %222, label %224

222:                                              ; preds = %213
  %223 = call noalias ptr @_emalloc_448()
  br label %396

224:                                              ; preds = %213
  %225 = load i64, ptr %3, align 8
  %226 = add i64 %225, 33
  %227 = load ptr, ptr %2, align 8
  %228 = getelementptr inbounds %struct._zend_string, ptr %227, i32 0, i32 2
  %229 = load i64, ptr %228, align 8
  %230 = add i64 %226, %229
  %231 = add i64 %230, 5
  %232 = icmp ule i64 %231, 512
  br i1 %232, label %233, label %235

233:                                              ; preds = %224
  %234 = call noalias ptr @_emalloc_512()
  br label %394

235:                                              ; preds = %224
  %236 = load i64, ptr %3, align 8
  %237 = add i64 %236, 33
  %238 = load ptr, ptr %2, align 8
  %239 = getelementptr inbounds %struct._zend_string, ptr %238, i32 0, i32 2
  %240 = load i64, ptr %239, align 8
  %241 = add i64 %237, %240
  %242 = add i64 %241, 5
  %243 = icmp ule i64 %242, 640
  br i1 %243, label %244, label %246

244:                                              ; preds = %235
  %245 = call noalias ptr @_emalloc_640()
  br label %392

246:                                              ; preds = %235
  %247 = load i64, ptr %3, align 8
  %248 = add i64 %247, 33
  %249 = load ptr, ptr %2, align 8
  %250 = getelementptr inbounds %struct._zend_string, ptr %249, i32 0, i32 2
  %251 = load i64, ptr %250, align 8
  %252 = add i64 %248, %251
  %253 = add i64 %252, 5
  %254 = icmp ule i64 %253, 768
  br i1 %254, label %255, label %257

255:                                              ; preds = %246
  %256 = call noalias ptr @_emalloc_768()
  br label %390

257:                                              ; preds = %246
  %258 = load i64, ptr %3, align 8
  %259 = add i64 %258, 33
  %260 = load ptr, ptr %2, align 8
  %261 = getelementptr inbounds %struct._zend_string, ptr %260, i32 0, i32 2
  %262 = load i64, ptr %261, align 8
  %263 = add i64 %259, %262
  %264 = add i64 %263, 5
  %265 = icmp ule i64 %264, 896
  br i1 %265, label %266, label %268

266:                                              ; preds = %257
  %267 = call noalias ptr @_emalloc_896()
  br label %388

268:                                              ; preds = %257
  %269 = load i64, ptr %3, align 8
  %270 = add i64 %269, 33
  %271 = load ptr, ptr %2, align 8
  %272 = getelementptr inbounds %struct._zend_string, ptr %271, i32 0, i32 2
  %273 = load i64, ptr %272, align 8
  %274 = add i64 %270, %273
  %275 = add i64 %274, 5
  %276 = icmp ule i64 %275, 1024
  br i1 %276, label %277, label %279

277:                                              ; preds = %268
  %278 = call noalias ptr @_emalloc_1024()
  br label %386

279:                                              ; preds = %268
  %280 = load i64, ptr %3, align 8
  %281 = add i64 %280, 33
  %282 = load ptr, ptr %2, align 8
  %283 = getelementptr inbounds %struct._zend_string, ptr %282, i32 0, i32 2
  %284 = load i64, ptr %283, align 8
  %285 = add i64 %281, %284
  %286 = add i64 %285, 5
  %287 = icmp ule i64 %286, 1280
  br i1 %287, label %288, label %290

288:                                              ; preds = %279
  %289 = call noalias ptr @_emalloc_1280()
  br label %384

290:                                              ; preds = %279
  %291 = load i64, ptr %3, align 8
  %292 = add i64 %291, 33
  %293 = load ptr, ptr %2, align 8
  %294 = getelementptr inbounds %struct._zend_string, ptr %293, i32 0, i32 2
  %295 = load i64, ptr %294, align 8
  %296 = add i64 %292, %295
  %297 = add i64 %296, 5
  %298 = icmp ule i64 %297, 1536
  br i1 %298, label %299, label %301

299:                                              ; preds = %290
  %300 = call noalias ptr @_emalloc_1536()
  br label %382

301:                                              ; preds = %290
  %302 = load i64, ptr %3, align 8
  %303 = add i64 %302, 33
  %304 = load ptr, ptr %2, align 8
  %305 = getelementptr inbounds %struct._zend_string, ptr %304, i32 0, i32 2
  %306 = load i64, ptr %305, align 8
  %307 = add i64 %303, %306
  %308 = add i64 %307, 5
  %309 = icmp ule i64 %308, 1792
  br i1 %309, label %310, label %312

310:                                              ; preds = %301
  %311 = call noalias ptr @_emalloc_1792()
  br label %380

312:                                              ; preds = %301
  %313 = load i64, ptr %3, align 8
  %314 = add i64 %313, 33
  %315 = load ptr, ptr %2, align 8
  %316 = getelementptr inbounds %struct._zend_string, ptr %315, i32 0, i32 2
  %317 = load i64, ptr %316, align 8
  %318 = add i64 %314, %317
  %319 = add i64 %318, 5
  %320 = icmp ule i64 %319, 2048
  br i1 %320, label %321, label %323

321:                                              ; preds = %312
  %322 = call noalias ptr @_emalloc_2048()
  br label %378

323:                                              ; preds = %312
  %324 = load i64, ptr %3, align 8
  %325 = add i64 %324, 33
  %326 = load ptr, ptr %2, align 8
  %327 = getelementptr inbounds %struct._zend_string, ptr %326, i32 0, i32 2
  %328 = load i64, ptr %327, align 8
  %329 = add i64 %325, %328
  %330 = add i64 %329, 5
  %331 = icmp ule i64 %330, 2560
  br i1 %331, label %332, label %334

332:                                              ; preds = %323
  %333 = call noalias ptr @_emalloc_2560()
  br label %376

334:                                              ; preds = %323
  %335 = load i64, ptr %3, align 8
  %336 = add i64 %335, 33
  %337 = load ptr, ptr %2, align 8
  %338 = getelementptr inbounds %struct._zend_string, ptr %337, i32 0, i32 2
  %339 = load i64, ptr %338, align 8
  %340 = add i64 %336, %339
  %341 = add i64 %340, 5
  %342 = icmp ule i64 %341, 3072
  br i1 %342, label %343, label %345

343:                                              ; preds = %334
  %344 = call noalias ptr @_emalloc_3072()
  br label %374

345:                                              ; preds = %334
  %346 = load i64, ptr %3, align 8
  %347 = add i64 %346, 33
  %348 = load ptr, ptr %2, align 8
  %349 = getelementptr inbounds %struct._zend_string, ptr %348, i32 0, i32 2
  %350 = load i64, ptr %349, align 8
  %351 = add i64 %347, %350
  %352 = add i64 %351, 5
  %353 = icmp ule i64 %352, 2093056
  br i1 %353, label %354, label %363

354:                                              ; preds = %345
  %355 = load i64, ptr %3, align 8
  %356 = add i64 %355, 33
  %357 = load ptr, ptr %2, align 8
  %358 = getelementptr inbounds %struct._zend_string, ptr %357, i32 0, i32 2
  %359 = load i64, ptr %358, align 8
  %360 = add i64 %356, %359
  %361 = add i64 %360, 5
  %362 = call noalias ptr @_emalloc_large(i64 noundef %361) #15
  br label %372

363:                                              ; preds = %345
  %364 = load i64, ptr %3, align 8
  %365 = add i64 %364, 33
  %366 = load ptr, ptr %2, align 8
  %367 = getelementptr inbounds %struct._zend_string, ptr %366, i32 0, i32 2
  %368 = load i64, ptr %367, align 8
  %369 = add i64 %365, %368
  %370 = add i64 %369, 5
  %371 = call noalias ptr @_emalloc_huge(i64 noundef %370) #15
  br label %372

372:                                              ; preds = %363, %354
  %373 = phi ptr [ %362, %354 ], [ %371, %363 ]
  br label %374

374:                                              ; preds = %372, %343
  %375 = phi ptr [ %344, %343 ], [ %373, %372 ]
  br label %376

376:                                              ; preds = %374, %332
  %377 = phi ptr [ %333, %332 ], [ %375, %374 ]
  br label %378

378:                                              ; preds = %376, %321
  %379 = phi ptr [ %322, %321 ], [ %377, %376 ]
  br label %380

380:                                              ; preds = %378, %310
  %381 = phi ptr [ %311, %310 ], [ %379, %378 ]
  br label %382

382:                                              ; preds = %380, %299
  %383 = phi ptr [ %300, %299 ], [ %381, %380 ]
  br label %384

384:                                              ; preds = %382, %288
  %385 = phi ptr [ %289, %288 ], [ %383, %382 ]
  br label %386

386:                                              ; preds = %384, %277
  %387 = phi ptr [ %278, %277 ], [ %385, %384 ]
  br label %388

388:                                              ; preds = %386, %266
  %389 = phi ptr [ %267, %266 ], [ %387, %386 ]
  br label %390

390:                                              ; preds = %388, %255
  %391 = phi ptr [ %256, %255 ], [ %389, %388 ]
  br label %392

392:                                              ; preds = %390, %244
  %393 = phi ptr [ %245, %244 ], [ %391, %390 ]
  br label %394

394:                                              ; preds = %392, %233
  %395 = phi ptr [ %234, %233 ], [ %393, %392 ]
  br label %396

396:                                              ; preds = %394, %222
  %397 = phi ptr [ %223, %222 ], [ %395, %394 ]
  br label %398

398:                                              ; preds = %396, %211
  %399 = phi ptr [ %212, %211 ], [ %397, %396 ]
  br label %400

400:                                              ; preds = %398, %200
  %401 = phi ptr [ %201, %200 ], [ %399, %398 ]
  br label %402

402:                                              ; preds = %400, %189
  %403 = phi ptr [ %190, %189 ], [ %401, %400 ]
  br label %404

404:                                              ; preds = %402, %178
  %405 = phi ptr [ %179, %178 ], [ %403, %402 ]
  br label %406

406:                                              ; preds = %404, %167
  %407 = phi ptr [ %168, %167 ], [ %405, %404 ]
  br label %408

408:                                              ; preds = %406, %156
  %409 = phi ptr [ %157, %156 ], [ %407, %406 ]
  br label %410

410:                                              ; preds = %408, %145
  %411 = phi ptr [ %146, %145 ], [ %409, %408 ]
  br label %412

412:                                              ; preds = %410, %134
  %413 = phi ptr [ %135, %134 ], [ %411, %410 ]
  br label %414

414:                                              ; preds = %412, %123
  %415 = phi ptr [ %124, %123 ], [ %413, %412 ]
  br label %416

416:                                              ; preds = %414, %112
  %417 = phi ptr [ %113, %112 ], [ %415, %414 ]
  br label %418

418:                                              ; preds = %416, %101
  %419 = phi ptr [ %102, %101 ], [ %417, %416 ]
  br label %420

420:                                              ; preds = %418, %90
  %421 = phi ptr [ %91, %90 ], [ %419, %418 ]
  br label %422

422:                                              ; preds = %420, %79
  %423 = phi ptr [ %80, %79 ], [ %421, %420 ]
  br label %424

424:                                              ; preds = %422, %68
  %425 = phi ptr [ %69, %68 ], [ %423, %422 ]
  br label %426

426:                                              ; preds = %424, %57
  %427 = phi ptr [ %58, %57 ], [ %425, %424 ]
  br label %428

428:                                              ; preds = %426, %46
  %429 = phi ptr [ %47, %46 ], [ %427, %426 ]
  br label %430

430:                                              ; preds = %428, %35
  %431 = phi ptr [ %36, %35 ], [ %429, %428 ]
  br label %432

432:                                              ; preds = %430, %24
  %433 = phi ptr [ %25, %24 ], [ %431, %430 ]
  br label %443

434:                                              ; preds = %1
  %435 = load i64, ptr %3, align 8
  %436 = add i64 %435, 33
  %437 = load ptr, ptr %2, align 8
  %438 = getelementptr inbounds %struct._zend_string, ptr %437, i32 0, i32 2
  %439 = load i64, ptr %438, align 8
  %440 = add i64 %436, %439
  %441 = add i64 %440, 5
  %442 = call noalias ptr @_emalloc(i64 noundef %441) #15
  br label %443

443:                                              ; preds = %434, %432
  %444 = phi ptr [ %433, %432 ], [ %442, %434 ]
  store ptr %444, ptr %4, align 8
  %445 = load ptr, ptr %4, align 8
  %446 = load ptr, ptr getelementptr inbounds (%struct._zend_accel_globals, ptr @accel_globals, i32 0, i32 5, i32 27), align 8
  %447 = load i64, ptr %3, align 8
  call void @llvm.memcpy.p0.p0.i64(ptr align 1 %445, ptr align 1 %446, i64 %447, i1 false)
  %448 = load ptr, ptr %4, align 8
  %449 = load i64, ptr %3, align 8
  %450 = getelementptr inbounds i8, ptr %448, i64 %449
  store i8 47, ptr %450, align 1
  %451 = load ptr, ptr %4, align 8
  %452 = load i64, ptr %3, align 8
  %453 = getelementptr inbounds i8, ptr %451, i64 %452
  %454 = getelementptr inbounds i8, ptr %453, i64 1
  call void @llvm.memcpy.p0.p0.i64(ptr align 1 %454, ptr align 16 @zend_system_id, i64 32, i1 false)
  %455 = load ptr, ptr %4, align 8
  %456 = load i64, ptr %3, align 8
  %457 = getelementptr inbounds i8, ptr %455, i64 %456
  %458 = getelementptr inbounds i8, ptr %457, i64 33
  %459 = load ptr, ptr %2, align 8
  %460 = getelementptr inbounds %struct._zend_string, ptr %459, i32 0, i32 3
  %461 = getelementptr inbounds [1 x i8], ptr %460, i64 0, i64 0
  %462 = load ptr, ptr %2, align 8
  %463 = getelementptr inbounds %struct._zend_string, ptr %462, i32 0, i32 2
  %464 = load i64, ptr %463, align 8
  call void @llvm.memcpy.p0.p0.i64(ptr align 1 %458, ptr align 8 %461, i64 %464, i1 false)
  %465 = load ptr, ptr %4, align 8
  %466 = load i64, ptr %3, align 8
  %467 = getelementptr inbounds i8, ptr %465, i64 %466
  %468 = getelementptr inbounds i8, ptr %467, i64 33
  %469 = load ptr, ptr %2, align 8
  %470 = getelementptr inbounds %struct._zend_string, ptr %469, i32 0, i32 2
  %471 = load i64, ptr %470, align 8
  %472 = getelementptr inbounds i8, ptr %468, i64 %471
  call void @llvm.memcpy.p0.p0.i64(ptr align 1 %472, ptr align 1 @.str.13, i64 5, i1 false)
  %473 = load ptr, ptr %4, align 8
  ret ptr %473
}

; Function Attrs: nounwind uwtable
define hidden void @zend_file_cache_invalidate(ptr noundef %0) #0 {
  %2 = alloca ptr, align 8
  %3 = alloca ptr, align 8
  store ptr %0, ptr %2, align 8
  %4 = load ptr, ptr %2, align 8
  %5 = call ptr @zend_file_cache_get_bin_file_path(ptr noundef %4)
  store ptr %5, ptr %3, align 8
  %6 = load ptr, ptr %3, align 8
  %7 = call i32 @unlink(ptr noundef %6) #14
  %8 = load ptr, ptr %3, align 8
  call void @_efree(ptr noundef %8)
  ret void
}