; Function Attrs: nounwind uwtable
define hidden void @zend_file_cache_invalidate(ptr nocapture noundef readonly %0) local_unnamed_addr #0 {
zend_file_cache_get_bin_file_path.exit:
  %1 = load ptr, ptr getelementptr inbounds (%struct._zend_accel_globals, ptr @accel_globals, i64 0, i32 5, i32 27), align 8
  %2 = tail call i64 @strlen(ptr noundef nonnull dereferenceable(1) %1) #17
  %3 = getelementptr inbounds i8, ptr %0, i64 16
  %4 = add i64 %2, 38
  %5 = load i64, ptr %3, align 8
  %6 = add i64 %4, %5
  %7 = tail call noalias ptr @_emalloc(i64 noundef %6) #18
  %8 = load ptr, ptr getelementptr inbounds (%struct._zend_accel_globals, ptr @accel_globals, i64 0, i32 5, i32 27), align 8
  tail call void @llvm.memcpy.p0.p0.i64(ptr align 1 %7, ptr align 1 %8, i64 %2, i1 false)
  %9 = getelementptr inbounds i8, ptr %7, i64 %2
  store i8 47, ptr %9, align 1
  %10 = getelementptr inbounds i8, ptr %9, i64 1
  tail call void @llvm.memcpy.p0.p0.i64(ptr noundef nonnull align 1 dereferenceable(32) %10, ptr noundef nonnull align 16 dereferenceable(32) @zend_system_id, i64 32, i1 false)
  %11 = getelementptr inbounds i8, ptr %9, i64 33
  %12 = getelementptr inbounds i8, ptr %0, i64 24
  %13 = load i64, ptr %3, align 8
  tail call void @llvm.memcpy.p0.p0.i64(ptr nonnull align 1 %11, ptr nonnull align 8 %12, i64 %13, i1 false)
  %14 = getelementptr inbounds i8, ptr %11, i64 %13
  tail call void @llvm.memcpy.p0.p0.i64(ptr noundef nonnull align 1 dereferenceable(5) %14, ptr noundef nonnull align 1 dereferenceable(5) @.str.13, i64 5, i1 false)
  %15 = tail call i32 @unlink(ptr noundef %7) #19
  tail call void @_efree(ptr noundef %7) #19
  ret void
}